target datalayout = "e-m:e-p270:32:32-p271:32:32-p272:64:64-i64:64-i128:128-f80:128-n8:16:32:64-S128"
target triple = "x86_64-pc-linux-gnu"

%class.macro_manager = type { ptr, %class.macro_util, %class.obj_map.2, %class.obj_map.7, %class.obj_map.12, %class.ref_vector, %class.ref_vector.17, %class.ref_vector.22, %class.ref_vector.27, %class.obj_hashtable, %class.ref_vector, %class.obj_hashtable, %class.svector, %class.func_decl_dependencies }
%class.macro_util = type { ptr, %class.bv_util, %class.arith_util, %class.arith_rewriter, %class.bv_rewriter, ptr, ptr }
%class.bv_util = type { %class.bv_recognizers, ptr, ptr }
%class.bv_recognizers = type { i32 }
%class.arith_util = type { ptr, ptr }
%class.arith_rewriter = type { %class.poly_rewriter.base, i8, i8, i8, i8, i8, i8, i8, i8, i32 }
%class.poly_rewriter.base = type <{ %class.arith_rewriter_core.base, [5 x i8], ptr, %class.obj_map, i8, i8, [2 x i8], i32, i8, i8, i8, i8 }>
%class.arith_rewriter_core.base = type <{ ptr, %class.arith_util, %class.scoped_ptr, i8, i8, i8 }>
%class.scoped_ptr = type { ptr }
%class.obj_map = type { %class.core_hashtable }
%class.core_hashtable = type <{ ptr, i32, i32, i32, [4 x i8] }>
%class.bv_rewriter = type <{ %class.poly_rewriter.base.1, [4 x i8], %class.mk_extract_proc, %class.arith_util, i8, i8, i8, i8, i8, i8, i8, i8, i8, i8, i8, i8, i8, [3 x i8] }>
%class.poly_rewriter.base.1 = type <{ %class.bv_rewriter_core, ptr, %class.obj_map, i8, i8, [2 x i8], i32, i8, i8, i8, i8 }>
%class.bv_rewriter_core = type { ptr, %class.bv_util, %class.obj_ref }
%class.obj_ref = type { ptr, ptr }
%class.mk_extract_proc = type { ptr, i32, i32, ptr, ptr }
%class.obj_map.2 = type { %class.core_hashtable.3 }
%class.core_hashtable.3 = type <{ ptr, i32, i32, i32, [4 x i8] }>
%class.obj_map.7 = type { %class.core_hashtable.8 }
%class.core_hashtable.8 = type <{ ptr, i32, i32, i32, [4 x i8] }>
%class.obj_map.12 = type { %class.core_hashtable.13 }
%class.core_hashtable.13 = type <{ ptr, i32, i32, i32, [4 x i8] }>
%class.ref_vector.17 = type { %class.ref_vector_core.18 }
%class.ref_vector_core.18 = type { %class.ref_manager_wrapper.19, %class.ptr_vector.20 }
%class.ref_manager_wrapper.19 = type { ptr }
%class.ptr_vector.20 = type { %class.vector.21 }
%class.vector.21 = type { ptr }
%class.ref_vector.22 = type { %class.ref_vector_core.23 }
%class.ref_vector_core.23 = type { %class.ref_manager_wrapper.24, %class.ptr_vector.25 }
%class.ref_manager_wrapper.24 = type { ptr }
%class.ptr_vector.25 = type { %class.vector.26 }
%class.vector.26 = type { ptr }
%class.ref_vector.27 = type { %class.ref_vector_core.28 }
%class.ref_vector_core.28 = type { %class.ref_manager_wrapper.29, %class.ptr_vector.30 }
%class.ref_manager_wrapper.29 = type { ptr }
%class.ptr_vector.30 = type { %class.vector.31 }
%class.vector.31 = type { ptr }
%class.ref_vector = type { %class.ref_vector_core }
%class.ref_vector_core = type { %class.ref_manager_wrapper, %class.ptr_vector }
%class.ref_manager_wrapper = type { ptr }
%class.ptr_vector = type { %class.vector }
%class.vector = type { ptr }
%class.obj_hashtable = type { %class.core_hashtable.base.33, [4 x i8] }
%class.core_hashtable.base.33 = type <{ ptr, i32, i32, i32 }>
%class.svector = type { %class.vector.34 }
%class.vector.34 = type { ptr }
%class.func_decl_dependencies = type { ptr, %class.obj_map.35 }
%class.obj_map.35 = type { %class.core_hashtable.36 }
%class.core_hashtable.36 = type <{ ptr, i32, i32, i32, [4 x i8] }>
%class.obj_mark = type { [8 x i8], %class.bit_vector }
%class.bit_vector = type { i32, i32, ptr }
%struct.default_t2uint = type { i8 }
%"struct.macro_manager_ns::proc" = type { ptr, ptr }
%class.justified_expr = type { ptr, ptr, ptr }

; Function Attrs: mustprogress nounwind uwtable
define linkonce_odr hidden void @_ZN10bit_vectorC2Ev(ptr noundef nonnull align 8 dereferenceable(16) %0) unnamed_addr #5 comdat align 2 {
  %2 = alloca ptr, align 8
  store ptr %0, ptr %2, align 8, !tbaa !501
  %3 = load ptr, ptr %2, align 8
  %4 = getelementptr inbounds nuw %class.bit_vector, ptr %3, i32 0, i32 0
  store i32 0, ptr %4, align 8, !tbaa !557
  %5 = getelementptr inbounds nuw %class.bit_vector, ptr %3, i32 0, i32 1
  store i32 0, ptr %5, align 4, !tbaa !558
  %6 = getelementptr inbounds nuw %class.bit_vector, ptr %3, i32 0, i32 2
  store ptr null, ptr %6, align 8, !tbaa !503
  ret void
}

; Function Attrs: mustprogress uwtable
define linkonce_odr hidden void @_Z13for_each_exprIN16macro_manager_ns4procEEvRT_R8obj_markI4expr10bit_vector14default_t2uintIS5_EEPS5_(ptr noundef nonnull align 8 dereferenceable(16) %0, ptr noundef nonnull align 8 dereferenceable(24) %1, ptr noundef %2) #4 comdat {
  %4 = alloca ptr, align 8
  %5 = alloca ptr, align 8
  %6 = alloca ptr, align 8
  store ptr %0, ptr %4, align 8, !tbaa !257
  store ptr %1, ptr %5, align 8, !tbaa !253
  store ptr %2, ptr %6, align 8, !tbaa !247
  %7 = load ptr, ptr %4, align 8, !tbaa !257
  %8 = load ptr, ptr %5, align 8, !tbaa !253
  %9 = load ptr, ptr %6, align 8, !tbaa !247
  call void @_Z18for_each_expr_coreIN16macro_manager_ns4procE8obj_markI4expr10bit_vector14default_t2uintIS3_EELb1ELb0EEvRT_RT0_PS3_(ptr noundef nonnull align 8 dereferenceable(16) %7, ptr noundef nonnull align 8 dereferenceable(24) %8, ptr noundef %9)
  ret void
}

; Function Attrs: mustprogress nounwind uwtable
define linkonce_odr hidden noundef ptr @_ZNK14justified_expr3fmlEv(ptr noundef nonnull align 8 dereferenceable(24) %0) #5 comdat align 2 {
  %2 = alloca ptr, align 8
  store ptr %0, ptr %2, align 8, !tbaa !250
  %3 = load ptr, ptr %2, align 8
  %4 = getelementptr inbounds nuw %class.justified_expr, ptr %3, i32 0, i32 1
  %5 = load ptr, ptr %4, align 8, !tbaa !259
  ret ptr %5
}

; Function Attrs: mustprogress nounwind uwtable
define linkonce_odr hidden void @_ZN16macro_manager_ns4procC2ER13obj_hashtableI9func_declER10ref_vectorIS2_11ast_managerE(ptr noundef nonnull align 8 dereferenceable(16) %0, ptr noundef nonnull align 8 dereferenceable(20) %1, ptr noundef nonnull align 8 dereferenceable(16) %2) unnamed_addr #5 comdat align 2 {
  %4 = alloca ptr, align 8
  %5 = alloca ptr, align 8
  %6 = alloca ptr, align 8
  store ptr %0, ptr %4, align 8, !tbaa !257
  store ptr %1, ptr %5, align 8, !tbaa !24
  store ptr %2, ptr %6, align 8, !tbaa !16
  %7 = load ptr, ptr %4, align 8
  %8 = getelementptr inbounds nuw %"struct.macro_manager_ns::proc", ptr %7, i32 0, i32 0
  %9 = load ptr, ptr %5, align 8, !tbaa !24
  store ptr %9, ptr %8, align 8, !tbaa !24
  %10 = getelementptr inbounds nuw %"struct.macro_manager_ns::proc", ptr %7, i32 0, i32 1
  %11 = load ptr, ptr %6, align 8, !tbaa !16
  store ptr %11, ptr %10, align 8, !tbaa !16
  ret void
}

; Function Attrs: mustprogress uwtable
define linkonce_odr hidden void @_ZN8obj_markI4expr10bit_vector14default_t2uintIS0_EEC2ERKS3_(ptr noundef nonnull align 8 dereferenceable(24) %0, ptr noundef nonnull align 1 dereferenceable(1) %1) unnamed_addr #4 comdat align 2 {
  %3 = alloca ptr, align 8
  %4 = alloca ptr, align 8
  store ptr %0, ptr %3, align 8, !tbaa !253
  store ptr %1, ptr %4, align 8, !tbaa !255
  %5 = load ptr, ptr %3, align 8
  %6 = getelementptr inbounds nuw %class.obj_mark, ptr %5, i32 0, i32 1
  call void @_ZN10bit_vectorC2Ev(ptr noundef nonnull align 8 dereferenceable(16) %6)
  ret void
}

; Function Attrs: mustprogress uwtable
define hidden void @_ZN13macro_manager14mark_forbiddenEjPK14justified_expr(ptr noundef nonnull align 8 dereferenceable(568) %0, i32 noundef %1, ptr noundef %2) #4 align 2 personality ptr @__gxx_personality_v0 {
  %4 = alloca ptr, align 8
  %5 = alloca i32, align 4
  %6 = alloca ptr, align 8
  %7 = alloca %class.obj_mark, align 8
  %8 = alloca %struct.default_t2uint, align 1
  %9 = alloca %"struct.macro_manager_ns::proc", align 8
  %10 = alloca ptr, align 8
  %11 = alloca i32, align 4
  %12 = alloca i32, align 4
  store ptr %0, ptr %4, align 8, !tbaa !3
  store i32 %1, ptr %5, align 4, !tbaa !26
  store ptr %2, ptr %6, align 8, !tbaa !250
  %13 = load ptr, ptr %4, align 8
  call void @llvm.lifetime.start.p0(i64 24, ptr %7) #3
  call void @llvm.lifetime.start.p0(i64 1, ptr %8) #3
  call void @_ZN8obj_markI4expr10bit_vector14default_t2uintIS0_EEC2ERKS3_(ptr noundef nonnull align 8 dereferenceable(24) %7, ptr noundef nonnull align 1 dereferenceable(1) %8)
  call void @llvm.lifetime.end.p0(i64 1, ptr %8) #3
  call void @llvm.lifetime.start.p0(i64 16, ptr %9) #3
  %14 = getelementptr inbounds nuw %class.macro_manager, ptr %13, i32 0, i32 9
  %15 = getelementptr inbounds nuw %class.macro_manager, ptr %13, i32 0, i32 10
  invoke void @_ZN16macro_manager_ns4procC2ER13obj_hashtableI9func_declER10ref_vectorIS2_11ast_managerE(ptr noundef nonnull align 8 dereferenceable(16) %9, ptr noundef nonnull align 8 dereferenceable(20) %14, ptr noundef nonnull align 8 dereferenceable(16) %15)
          to label %16 unwind label %22

16:                                               ; preds = %3
  call void @llvm.lifetime.start.p0(i64 4, ptr %12) #3
  store i32 0, ptr %12, align 4, !tbaa !26
  br label %17

17:                                               ; preds = %34, %16
  %18 = load i32, ptr %12, align 4, !tbaa !26
  %19 = load i32, ptr %5, align 4, !tbaa !26
  %20 = icmp ult i32 %18, %19
  br i1 %20, label %26, label %21

21:                                               ; preds = %17
  call void @llvm.lifetime.end.p0(i64 4, ptr %12) #3
  br label %41

22:                                               ; preds = %3
  %23 = landingpad { ptr, i32 }
          cleanup
  %24 = extractvalue { ptr, i32 } %23, 0
  store ptr %24, ptr %10, align 8
  %25 = extractvalue { ptr, i32 } %23, 1
  store i32 %25, ptr %11, align 4
  br label %42

26:                                               ; preds = %17
  %27 = load ptr, ptr %6, align 8, !tbaa !250
  %28 = load i32, ptr %12, align 4, !tbaa !26
  %29 = zext i32 %28 to i64
  %30 = getelementptr inbounds nuw %class.justified_expr, ptr %27, i64 %29
  %31 = invoke noundef ptr @_ZNK14justified_expr3fmlEv(ptr noundef nonnull align 8 dereferenceable(24) %30)
          to label %32 unwind label %37

32:                                               ; preds = %26
  invoke void @_Z13for_each_exprIN16macro_manager_ns4procEEvRT_R8obj_markI4expr10bit_vector14default_t2uintIS5_EEPS5_(ptr noundef nonnull align 8 dereferenceable(16) %9, ptr noundef nonnull align 8 dereferenceable(24) %7, ptr noundef %31)
          to label %33 unwind label %37

33:                                               ; preds = %32
  br label %34

34:                                               ; preds = %33
  %35 = load i32, ptr %12, align 4, !tbaa !26
  %36 = add i32 %35, 1
  store i32 %36, ptr %12, align 4, !tbaa !26
  br label %17, !llvm.loop !252

37:                                               ; preds = %32, %26
  %38 = landingpad { ptr, i32 }
          cleanup
  %39 = extractvalue { ptr, i32 } %38, 0
  store ptr %39, ptr %10, align 8
  %40 = extractvalue { ptr, i32 } %38, 1
  store i32 %40, ptr %11, align 4
  call void @llvm.lifetime.end.p0(i64 4, ptr %12) #3
  br label %42

41:                                               ; preds = %21
  call void @llvm.lifetime.end.p0(i64 16, ptr %9) #3
  call void @_ZN8obj_markI4expr10bit_vector14default_t2uintIS0_EED2Ev(ptr noundef nonnull align 8 dereferenceable(24) %7) #3
  call void @llvm.lifetime.end.p0(i64 24, ptr %7) #3
  ret void

42:                                               ; preds = %37, %22
  call void @llvm.lifetime.end.p0(i64 16, ptr %9) #3
  call void @_ZN8obj_markI4expr10bit_vector14default_t2uintIS0_EED2Ev(ptr noundef nonnull align 8 dereferenceable(24) %7) #3
  call void @llvm.lifetime.end.p0(i64 24, ptr %7) #3
  br label %43

43:                                               ; preds = %42
  %44 = load ptr, ptr %10, align 8
  %45 = load i32, ptr %11, align 4
  %46 = insertvalue { ptr, i32 } poison, ptr %44, 0
  %47 = insertvalue { ptr, i32 } %46, i32 %45, 1
  resume { ptr, i32 } %47
}