; Function Attrs: mustprogress uwtable
define hidden void @_ZN13macro_manager14mark_forbiddenEjPK14justified_expr(ptr noundef nonnull align 8 dereferenceable(568) %0, i32 noundef %1, ptr noundef readonly captures(none) %2) local_unnamed_addr #3 align 2 personality ptr @__gxx_personality_v0 {
  %4 = alloca %class.obj_mark, align 8
  %5 = alloca %"struct.macro_manager_ns::proc", align 8
  call void @llvm.lifetime.start.p0(i64 24, ptr nonnull %4) #19
  %6 = getelementptr inbounds nuw i8, ptr %4, i64 8
  call void @llvm.memset.p0.i64(ptr noundef nonnull align 8 dereferenceable(16) %6, i8 0, i64 16, i1 false)
  call void @llvm.lifetime.start.p0(i64 16, ptr nonnull %5) #19
  %7 = getelementptr inbounds nuw i8, ptr %0, i64 464
  %8 = getelementptr inbounds nuw i8, ptr %0, i64 488
  store ptr %7, ptr %5, align 8, !tbaa !268
  %9 = getelementptr inbounds nuw i8, ptr %5, i64 8
  store ptr %8, ptr %9, align 8, !tbaa !269
  %.not = icmp eq i32 %1, 0
  br i1 %.not, label %._crit_edge.thread, label %.lr.ph.preheader

._crit_edge.thread:                               ; preds = %3
  call void @llvm.lifetime.end.p0(i64 16, ptr nonnull %5) #19
  br label %_ZN8obj_markI4expr10bit_vector14default_t2uintIS0_EED2Ev.exit

.lr.ph.preheader:                                 ; preds = %3
  %wide.trip.count = zext i32 %1 to i64
  br label %.lr.ph

._crit_edge:                                      ; preds = %_Z13for_each_exprIN16macro_manager_ns4procEEvRT_R8obj_markI4expr10bit_vector14default_t2uintIS5_EEPS5_.exit
  %.phi.trans.insert = getelementptr inbounds nuw i8, ptr %4, i64 16
  %.pre = load ptr, ptr %.phi.trans.insert, align 8, !tbaa !271
  call void @llvm.lifetime.end.p0(i64 16, ptr nonnull %5) #19
  %10 = icmp eq ptr %.pre, null
  br i1 %10, label %_ZN8obj_markI4expr10bit_vector14default_t2uintIS0_EED2Ev.exit, label %11

11:                                               ; preds = %._crit_edge
  invoke void @_ZN6memory10deallocateEPv(ptr noundef nonnull %.pre)
          to label %_ZN8obj_markI4expr10bit_vector14default_t2uintIS0_EED2Ev.exit unwind label %12

12:                                               ; preds = %11
  %13 = landingpad { ptr, i32 }
          catch ptr null
  %14 = extractvalue { ptr, i32 } %13, 0
  call void @__clang_call_terminate(ptr %14) #20
  unreachable

_ZN8obj_markI4expr10bit_vector14default_t2uintIS0_EED2Ev.exit: ; preds = %._crit_edge.thread, %._crit_edge, %11
  call void @llvm.lifetime.end.p0(i64 24, ptr nonnull %4) #19
  ret void

.lr.ph:                                           ; preds = %.lr.ph.preheader, %_Z13for_each_exprIN16macro_manager_ns4procEEvRT_R8obj_markI4expr10bit_vector14default_t2uintIS5_EEPS5_.exit
  %indvars.iv = phi i64 [ 0, %.lr.ph.preheader ], [ %indvars.iv.next, %_Z13for_each_exprIN16macro_manager_ns4procEEvRT_R8obj_markI4expr10bit_vector14default_t2uintIS5_EEPS5_.exit ]
  %15 = getelementptr inbounds nuw %class.justified_expr, ptr %2, i64 %indvars.iv, i32 1
  %16 = load ptr, ptr %15, align 8, !tbaa !273
  invoke void @_Z18for_each_expr_coreIN16macro_manager_ns4procE8obj_markI4expr10bit_vector14default_t2uintIS3_EELb1ELb0EEvRT_RT0_PS3_(ptr noundef nonnull align 8 dereferenceable(16) %5, ptr noundef nonnull align 8 dereferenceable(24) %4, ptr noundef %16)
          to label %_Z13for_each_exprIN16macro_manager_ns4procEEvRT_R8obj_markI4expr10bit_vector14default_t2uintIS5_EEPS5_.exit unwind label %17

_Z13for_each_exprIN16macro_manager_ns4procEEvRT_R8obj_markI4expr10bit_vector14default_t2uintIS5_EEPS5_.exit: ; preds = %.lr.ph
  %indvars.iv.next = add nuw nsw i64 %indvars.iv, 1
  %exitcond.not = icmp eq i64 %indvars.iv.next, %wide.trip.count
  br i1 %exitcond.not, label %._crit_edge, label %.lr.ph, !llvm.loop !275

17:                                               ; preds = %.lr.ph
  %18 = landingpad { ptr, i32 }
          cleanup
  call void @llvm.lifetime.end.p0(i64 16, ptr nonnull %5) #19
  call void @_ZN8obj_markI4expr10bit_vector14default_t2uintIS0_EED2Ev(ptr noundef nonnull align 8 dereferenceable(24) %4) #19
  call void @llvm.lifetime.end.p0(i64 24, ptr nonnull %4) #19
  resume { ptr, i32 } %18
}